target datalayout = "e-m:e-p270:32:32-p271:32:32-p272:64:64-i64:64-i128:128-f80:128-n8:16:32:64-S128"
target triple = "x86_64-unknown-linux-gnu"

%"class.std::vector.3" = type { %"struct.std::_Vector_base.4" }
%"struct.std::_Vector_base.4" = type { %"struct.std::_Vector_base<std::shared_ptr<const facebook::velox::core::PlanNode>, std::allocator<std::shared_ptr<const facebook::velox::core::PlanNode>>>::_Vector_impl" }
%"struct.std::_Vector_base<std::shared_ptr<const facebook::velox::core::PlanNode>, std::allocator<std::shared_ptr<const facebook::velox::core::PlanNode>>>::_Vector_impl" = type { %"struct.std::_Vector_base<std::shared_ptr<const facebook::velox::core::PlanNode>, std::allocator<std::shared_ptr<const facebook::velox::core::PlanNode>>>::_Vector_impl_data" }
%"struct.std::_Vector_base<std::shared_ptr<const facebook::velox::core::PlanNode>, std::allocator<std::shared_ptr<const facebook::velox::core::PlanNode>>>::_Vector_impl_data" = type { ptr, ptr, ptr }
%"struct.folly::dynamic" = type { i32, %"union.folly::dynamic::Data" }
%"union.folly::dynamic::Data" = type { %"class.std::__cxx11::basic_string" }
%"class.std::__cxx11::basic_string" = type { %"struct.std::__cxx11::basic_string<char>::_Alloc_hider", i64, %union.anon }
%"struct.std::__cxx11::basic_string<char>::_Alloc_hider" = type { ptr }
%union.anon = type { i64, [8 x i8] }
%"class.folly::Range" = type { ptr, ptr }
%"class.std::__shared_count" = type { ptr }
%"class.facebook::velox::core::PlanNode" = type { %"class.facebook::velox::ISerializable", %"class.std::__cxx11::basic_string" }
%"class.facebook::velox::ISerializable" = type { ptr }
%"class.std::shared_ptr.120" = type { %"class.std::__shared_ptr.121" }
%"class.std::__shared_ptr.121" = type { ptr, %"class.std::__shared_count" }
%"class.facebook::velox::core::FilterNode" = type { %"class.facebook::velox::core::PlanNode", %"class.std::vector.3", %"class.std::shared_ptr.120" }

@.str.68 = private unnamed_addr constant [7 x i8] c"filter\00", align 1

; Function Attrs: mustprogress nounwind uwtable
define linkonce_odr noundef i64 @_ZN5folly6detail25constexpr_strlen_internalIcLm0EEEmPKT_i(ptr noundef %s, i32 noundef %0) #1 comdat {
entry:
  %s.addr = alloca ptr, align 8
  %.addr = alloca i32, align 4
  store ptr %s, ptr %s.addr, align 8
  store i32 %0, ptr %.addr, align 4
  %1 = load ptr, ptr %s.addr, align 8
  %call = call i64 @strlen(ptr noundef %1) #5
  ret i64 %call
}

; Function Attrs: mustprogress nounwind uwtable
define linkonce_odr noundef ptr @_ZNKSt12__shared_ptrIKN8facebook5velox4core10ITypedExprELN9__gnu_cxx12_Lock_policyE2EE3getEv(ptr noundef nonnull align 8 dereferenceable(16) %this) #1 comdat align 2 {
entry:
  %this.addr = alloca ptr, align 8
  store ptr %this, ptr %this.addr, align 8
  %this1 = load ptr, ptr %this.addr, align 8
  %_M_ptr = getelementptr inbounds %"class.std::__shared_ptr.121", ptr %this1, i32 0, i32 0
  %0 = load ptr, ptr %_M_ptr, align 8
  ret ptr %0
}

; Function Attrs: mustprogress nounwind uwtable
define linkonce_odr void @_ZN5folly7dynamic4DataD2Ev(ptr noundef nonnull align 8 dereferenceable(32) %this) unnamed_addr #1 comdat align 2 {
entry:
  %this.addr = alloca ptr, align 8
  store ptr %this, ptr %this.addr, align 8
  ret void
}

; Function Attrs: mustprogress nounwind uwtable
define linkonce_odr noundef i64 @_ZN5folly16constexpr_strlenIcEEmPKT_(ptr noundef %s) #1 comdat {
entry:
  %s.addr = alloca ptr, align 8
  store ptr %s, ptr %s.addr, align 8
  %0 = load ptr, ptr %s.addr, align 8
  %call = call noundef i64 @_ZN5folly6detail25constexpr_strlen_internalIcLm0EEEmPKT_i(ptr noundef %0, i32 noundef 0) #5
  ret i64 %call
}

; Function Attrs: mustprogress nounwind uwtable
define linkonce_odr noundef ptr @_ZNKSt19__shared_ptr_accessIKN8facebook5velox4core10ITypedExprELN9__gnu_cxx12_Lock_policyE2ELb0ELb0EE6_M_getEv(ptr noundef nonnull align 1 dereferenceable(1) %this) #1 comdat align 2 {
entry:
  %this.addr = alloca ptr, align 8
  store ptr %this, ptr %this.addr, align 8
  %this1 = load ptr, ptr %this.addr, align 8
  %call = call noundef ptr @_ZNKSt12__shared_ptrIKN8facebook5velox4core10ITypedExprELN9__gnu_cxx12_Lock_policyE2EE3getEv(ptr noundef nonnull align 8 dereferenceable(16) %this1) #5
  ret ptr %call
}

; Function Attrs: mustprogress nounwind uwtable
define linkonce_odr void @_ZN5folly7dynamicD2Ev(ptr noundef nonnull align 8 dereferenceable(40) %this) unnamed_addr #1 comdat align 2 {
entry:
  %this.addr = alloca ptr, align 8
  store ptr %this, ptr %this.addr, align 8
  %this1 = load ptr, ptr %this.addr, align 8
  call void @_ZN5folly7dynamic7destroyEv(ptr noundef nonnull align 8 dereferenceable(40) %this1) #5
  %u_ = getelementptr inbounds %"struct.folly::dynamic", ptr %this1, i32 0, i32 1
  call void @_ZN5folly7dynamic4DataD2Ev(ptr noundef nonnull align 8 dereferenceable(32) %u_) #5
  ret void
}

; Function Attrs: mustprogress nounwind uwtable
define linkonce_odr void @_ZN5folly5RangeIPKcEC2ES2_(ptr noundef nonnull align 8 dereferenceable(16) %this, ptr noundef %str) unnamed_addr #1 comdat align 2 {
entry:
  %this.addr = alloca ptr, align 8
  %str.addr = alloca ptr, align 8
  store ptr %this, ptr %this.addr, align 8
  store ptr %str, ptr %str.addr, align 8
  %this1 = load ptr, ptr %this.addr, align 8
  %b_ = getelementptr inbounds %"class.folly::Range", ptr %this1, i32 0, i32 0
  %0 = load ptr, ptr %str.addr, align 8
  store ptr %0, ptr %b_, align 8
  %e_ = getelementptr inbounds %"class.folly::Range", ptr %this1, i32 0, i32 1
  %1 = load ptr, ptr %str.addr, align 8
  %2 = load ptr, ptr %str.addr, align 8
  %call = call noundef i64 @_ZN5folly16constexpr_strlenIcEEmPKT_(ptr noundef %2) #5
  %add.ptr = getelementptr inbounds i8, ptr %1, i64 %call
  store ptr %add.ptr, ptr %e_, align 8
  ret void
}

; Function Attrs: mustprogress nounwind uwtable
define linkonce_odr noundef ptr @_ZNKSt19__shared_ptr_accessIKN8facebook5velox4core10ITypedExprELN9__gnu_cxx12_Lock_policyE2ELb0ELb0EEptEv(ptr noundef nonnull align 1 dereferenceable(1) %this) #1 comdat align 2 {
entry:
  %this.addr = alloca ptr, align 8
  store ptr %this, ptr %this.addr, align 8
  %this1 = load ptr, ptr %this.addr, align 8
  %call = call noundef ptr @_ZNKSt19__shared_ptr_accessIKN8facebook5velox4core10ITypedExprELN9__gnu_cxx12_Lock_policyE2ELb0ELb0EE6_M_getEv(ptr noundef nonnull align 1 dereferenceable(1) %this1) #5
  ret ptr %call
}

; Function Attrs: mustprogress uwtable
define void @_ZNK8facebook5velox4core10FilterNode9serializeEv(ptr noalias sret(%"struct.folly::dynamic") align 8 %agg.result, ptr noundef nonnull align 8 dereferenceable(80) %this) unnamed_addr #2 align 2 personality ptr @__gxx_personality_v0 {
entry:
  %result.ptr = alloca ptr, align 8
  %this.addr = alloca ptr, align 8
  %nrvo = alloca i1, align 1
  %ref.tmp = alloca %"struct.folly::dynamic", align 8
  %exn.slot = alloca ptr, align 8
  %ehselector.slot = alloca i32, align 4
  %agg.tmp = alloca %"class.folly::Range", align 8
  store ptr %agg.result, ptr %result.ptr, align 8
  store ptr %this, ptr %this.addr, align 8
  %this1 = load ptr, ptr %this.addr, align 8
  store i1 false, ptr %nrvo, align 1
  call void @_ZNK8facebook5velox4core8PlanNode9serializeEv(ptr sret(%"struct.folly::dynamic") align 8 %agg.result, ptr noundef nonnull align 8 dereferenceable(40) %this1)
  %filter_ = getelementptr inbounds %"class.facebook::velox::core::FilterNode", ptr %this1, i32 0, i32 2
  %call = call noundef ptr @_ZNKSt19__shared_ptr_accessIKN8facebook5velox4core10ITypedExprELN9__gnu_cxx12_Lock_policyE2ELb0ELb0EEptEv(ptr noundef nonnull align 1 dereferenceable(1) %filter_) #5
  %vtable = load ptr, ptr %call, align 8
  %vfn = getelementptr inbounds ptr, ptr %vtable, i64 0
  %0 = load ptr, ptr %vfn, align 8
  invoke void %0(ptr sret(%"struct.folly::dynamic") align 8 %ref.tmp, ptr noundef nonnull align 8 dereferenceable(8) %call)
          to label %invoke.cont unwind label %lpad

invoke.cont:                                      ; preds = %entry
  invoke void @_ZN5folly5RangeIPKcEC2ES2_(ptr noundef nonnull align 8 dereferenceable(16) %agg.tmp, ptr noundef @.str.68)
          to label %invoke.cont3 unwind label %lpad2

invoke.cont3:                                     ; preds = %invoke.cont
  %1 = getelementptr inbounds { ptr, ptr }, ptr %agg.tmp, i32 0, i32 0
  %2 = load ptr, ptr %1, align 8
  %3 = getelementptr inbounds { ptr, ptr }, ptr %agg.tmp, i32 0, i32 1
  %4 = load ptr, ptr %3, align 8
  %call5 = invoke noundef nonnull align 8 dereferenceable(40) ptr @_ZNR5folly7dynamicixENS_5RangeIPKcEE(ptr noundef nonnull align 8 dereferenceable(40) %agg.result, ptr %2, ptr %4)
          to label %invoke.cont4 unwind label %lpad2

invoke.cont4:                                     ; preds = %invoke.cont3
  %call6 = call noundef nonnull align 8 dereferenceable(40) ptr @_ZN5folly7dynamicaSEOS0_(ptr noundef nonnull align 8 dereferenceable(40) %call5, ptr noundef nonnull align 8 dereferenceable(40) %ref.tmp) #5
  call void @_ZN5folly7dynamicD2Ev(ptr noundef nonnull align 8 dereferenceable(40) %ref.tmp) #5
  store i1 true, ptr %nrvo, align 1
  %nrvo.val = load i1, ptr %nrvo, align 1
  br i1 %nrvo.val, label %nrvo.skipdtor, label %nrvo.unused

lpad:                                             ; preds = %entry
  %5 = landingpad { ptr, i32 }
          cleanup
  %6 = extractvalue { ptr, i32 } %5, 0
  store ptr %6, ptr %exn.slot, align 8
  %7 = extractvalue { ptr, i32 } %5, 1
  store i32 %7, ptr %ehselector.slot, align 4
  br label %ehcleanup

lpad2:                                            ; preds = %invoke.cont3, %invoke.cont
  %8 = landingpad { ptr, i32 }
          cleanup
  %9 = extractvalue { ptr, i32 } %8, 0
  store ptr %9, ptr %exn.slot, align 8
  %10 = extractvalue { ptr, i32 } %8, 1
  store i32 %10, ptr %ehselector.slot, align 4
  call void @_ZN5folly7dynamicD2Ev(ptr noundef nonnull align 8 dereferenceable(40) %ref.tmp) #5
  br label %ehcleanup

nrvo.unused:                                      ; preds = %invoke.cont4
  call void @_ZN5folly7dynamicD2Ev(ptr noundef nonnull align 8 dereferenceable(40) %agg.result) #5
  br label %nrvo.skipdtor

nrvo.skipdtor:                                    ; preds = %nrvo.unused, %invoke.cont4
  ret void

ehcleanup:                                        ; preds = %lpad2, %lpad
  call void @_ZN5folly7dynamicD2Ev(ptr noundef nonnull align 8 dereferenceable(40) %agg.result) #5
  br label %eh.resume

eh.resume:                                        ; preds = %ehcleanup
  %exn = load ptr, ptr %exn.slot, align 8
  %sel = load i32, ptr %ehselector.slot, align 4
  %lpad.val = insertvalue { ptr, i32 } poison, ptr %exn, 0
  %lpad.val7 = insertvalue { ptr, i32 } %lpad.val, i32 %sel, 1
  resume { ptr, i32 } %lpad.val7
}